(dp0
S'head_back'
p1
ccopy_reg
_reconstructor
p2
(csklearn.linear_model.logistic
LogisticRegression
p3
c__builtin__
object
p4
Ntp5
Rp6
(dp7
S'C'
p8
I5
sS'max_iter'
p9
I100
sS'verbose'
p10
I0
sS'intercept_scaling'
p11
I1
sS'dual'
p12
I00
sS'fit_intercept'
p13
I01
sS'classes_'
p14
cnumpy.core.multiarray
_reconstruct
p15
(cnumpy
ndarray
p16
(I0
tp17
S'b'
p18
tp19
Rp20
(I1
(I2
tp21
cnumpy
dtype
p22
(S'i8'
p23
I0
I1
tp24
Rp25
(I3
S'<'
p26
NNNI-1
I-1
I0
tp27
bI00
S'\x00\x00\x00\x00\x00\x00\x00\x00\x01\x00\x00\x00\x00\x00\x00\x00'
p28
tp29
bsS'solver'
p30
S'liblinear'
p31
sS'n_iter_'
p32
cnumpy.core.multiarray
scalar
p33
(g22
(S'i4'
p34
I0
I1
tp35
Rp36
(I3
S'<'
p37
NNNI-1
I-1
I0
tp38
bS'\x04\x00\x00\x00'
p39
tp40
Rp41
sS'penalty'
p42
S'l1'
p43
sS'multi_class'
p44
S'ovr'
p45
sS'random_state'
p46
NsS'tol'
p47
F0.0001
sS'coef_'
p48
g15
(g16
(I0
tp49
g18
tp50
Rp51
(I1
(I1
I1
tp52
g22
(S'f8'
p53
I0
I1
tp54
Rp55
(I3
S'<'
p56
NNNI-1
I-1
I0
tp57
bI00
S'\xd6\x07ZW\x18\xc7\xd8?'
p58
tp59
bsS'intercept_'
p60
g15
(g16
(I0
tp61
g18
tp62
Rp63
(I1
(I1
tp64
g55
I00
S'\xac\xbe\xa7\x0b8\x9b\xd4\xbf'
p65
tp66
bsS'class_weight'
p67
NsbsS'elbow_angle'
p68
g2
(g3
g4
Ntp69
Rp70
(dp71
g8
I8
sg9
I100
sg10
I0
sg11
I1
sg12
I00
sg13
I01
sg14
g15
(g16
(I0
tp72
g18
tp73
Rp74
(I1
(I2
tp75
g25
I00
S'\x00\x00\x00\x00\x00\x00\x00\x00\x01\x00\x00\x00\x00\x00\x00\x00'
p76
tp77
bsg30
g31
sg32
g33
(g36
S'\x16\x00\x00\x00'
p78
tp79
Rp80
sg42
g43
sg44
g45
sg46
Nsg47
F0.0001
sg48
g15
(g16
(I0
tp81
g18
tp82
Rp83
(I1
(I1
I4
tp84
g55
I01
S'\xd5\xfe5\xe9\xa7\xc4\xff?J\x82\xb5\xc9\xb87\xf7?\xc6T\x03\t\x02\xe6\n@=f\xb3\xe0q\x10\xe5?'
p85
tp86
bsg60
g15
(g16
(I0
tp87
g18
tp88
Rp89
(I1
(I1
tp90
g55
I00
S' \x83\xbc\x94LQ\x18\xc0'
p91
tp92
bsg67
NsbsS'knees_straight'
p93
g2
(g3
g4
Ntp94
Rp95
(dp96
g8
I8
sg9
I100
sg10
I0
sg11
I1
sg12
I00
sg13
I01
sg14
g15
(g16
(I0
tp97
g18
tp98
Rp99
(I1
(I2
tp100
g25
I00
S'\x00\x00\x00\x00\x00\x00\x00\x00\x01\x00\x00\x00\x00\x00\x00\x00'
p101
tp102
bsg30
g31
sg32
g33
(g36
S'\x12\x00\x00\x00'
p103
tp104
Rp105
sg42
g43
sg44
g45
sg46
Nsg47
F0.0001
sg48
g15
(g16
(I0
tp106
g18
tp107
Rp108
(I1
(I1
I2
tp109
g55
I01
S'\xcf\x81[\xbcTa\x04\xc0\xef\xbf9J8:\xd1?'
p110
tp111
bsg60
g15
(g16
(I0
tp112
g18
tp113
Rp114
(I1
(I1
tp115
g55
I00
S'x\x8d\xfc\x8f\x93\n\x0c\xc0'
p116
tp117
bsg67
Nsbs.