(dp0
S'bend_hips_knees'
p1
(lp2
I193
aI199
aI399
aI2
aI1
aI270
aI6
aI4
aI3
aI8
aI7
aI10
aI13
aI9
aI11
aI12
aI14
aI16
aI15
aI17
aI20
aI18
aI19
aI26
aI30
asS'back_hip_angle'
p3
(lp4
I305
aI41
aI409
aI79
aI153
aI292
aI363
aI85
aI324
aI275
aI9
aI17
aI87
aI96
aI11
aI121
aI3
aI13
aI123
aI126
aI15
aI125
aI127
aI128
aI136
asS'squat_depth'
p5
(lp6
I399
aI322
aI1
aI2
aI3
aI4
aI5
aI6
aI7
aI8
aI9
aI10
aI11
aI12
aI13
aI14
aI15
aI16
aI17
aI18
aI19
aI20
aI21
aI22
aI23
asS'knees_over_toes'
p7
(lp8
I416
aI250
aI345
aI114
aI337
aI42
aI294
aI4
aI454
aI457
aI14
aI22
aI47
aI48
aI2
aI7
aI49
aI29
aI120
aI11
aI272
aI40
aI117
aI450
aI256
asS'stance_width'
p9
(lp10
I55
aI16
aI86
aI54
aI1
aI2
aI3
aI4
aI5
aI7
aI9
aI6
aI13
aI15
aI17
aI14
aI18
aI19
aI20
aI21
aI22
aI23
aI24
aI25
aI26
as.