(dp0
S'bend_hips_knees'
p1
(lp2
I193
aI199
aI270
asS'back_hip_angle'
p3
(lp4
I305
aI41
aI409
aI79
aI153
aI292
aI363
aI85
aI324
aI275
asS'squat_depth'
p5
(lp6
I399
aI322
asS'knees_over_toes'
p7
(lp8
I416
aI250
aI362
asS'stance_width'
p9
(lp10
I55
aI16
aI86
aI54
as.